target datalayout = "e-m:e-p270:32:32-p271:32:32-p272:64:64-i64:64-i128:128-f80:128-n8:16:32:64-S128"
target triple = "x86_64-pc-linux-gnu"

%struct._cms_io_handler = type { ptr, ptr, i32, i32, [256 x i8], ptr, ptr, ptr, ptr, ptr }
%union.typeConverter.0 = type { i32 }

; Function Attrs: nounwind uwtable
define hidden i32 @_cmsAdjustEndianess32(i32 noundef %0) #0 {
  %2 = alloca i32, align 4
  %3 = alloca ptr, align 8
  %4 = alloca i8, align 1
  %5 = alloca i8, align 1
  store i32 %0, ptr %2, align 4
  store ptr %2, ptr %3, align 8
  %6 = load ptr, ptr %3, align 8
  %7 = getelementptr inbounds i8, ptr %6, i32 1
  store ptr %7, ptr %3, align 8
  %8 = load i8, ptr %6, align 1
  store i8 %8, ptr %4, align 1
  %9 = load ptr, ptr %3, align 8
  %10 = getelementptr inbounds i8, ptr %9, i32 1
  store ptr %10, ptr %3, align 8
  %11 = load i8, ptr %9, align 1
  store i8 %11, ptr %5, align 1
  %12 = load ptr, ptr %3, align 8
  %13 = load i8, ptr %12, align 1
  %14 = load ptr, ptr %3, align 8
  %15 = getelementptr inbounds i8, ptr %14, i64 -1
  store i8 %13, ptr %15, align 1
  %16 = load i8, ptr %5, align 1
  %17 = load ptr, ptr %3, align 8
  %18 = getelementptr inbounds i8, ptr %17, i32 1
  store ptr %18, ptr %3, align 8
  store i8 %16, ptr %17, align 1
  %19 = load ptr, ptr %3, align 8
  %20 = load i8, ptr %19, align 1
  %21 = load ptr, ptr %3, align 8
  %22 = getelementptr inbounds i8, ptr %21, i64 -3
  store i8 %20, ptr %22, align 1
  %23 = load i8, ptr %4, align 1
  %24 = load ptr, ptr %3, align 8
  store i8 %23, ptr %24, align 1
  %25 = load i32, ptr %2, align 4
  ret i32 %25
}

; Function Attrs: nounwind uwtable
define hidden i32 @_cmsWriteFloat32Number(ptr noundef %0, float noundef %1) #0 {
  %3 = alloca i32, align 4
  %4 = alloca ptr, align 8
  %5 = alloca float, align 4
  %6 = alloca %union.typeConverter.0, align 4
  store ptr %0, ptr %4, align 8
  store float %1, ptr %5, align 4
  %7 = load float, ptr %5, align 4
  store float %7, ptr %6, align 4
  %8 = load i32, ptr %6, align 4
  %9 = call i32 @_cmsAdjustEndianess32(i32 noundef %8)
  store i32 %9, ptr %6, align 4
  %10 = load ptr, ptr %4, align 8
  %11 = getelementptr inbounds %struct._cms_io_handler, ptr %10, i32 0, i32 9
  %12 = load ptr, ptr %11, align 8
  %13 = load ptr, ptr %4, align 8
  %14 = call i32 %12(ptr noundef %13, i32 noundef 4, ptr noundef %6)
  %15 = icmp ne i32 %14, 1
  br i1 %15, label %16, label %17

16:                                               ; preds = %2
  store i32 0, ptr %3, align 4
  br label %18

17:                                               ; preds = %2
  store i32 1, ptr %3, align 4
  br label %18

18:                                               ; preds = %17, %16
  %19 = load i32, ptr %3, align 4
  ret i32 %19
}